target datalayout = "e-m:e-p270:32:32-p271:32:32-p272:64:64-i64:64-i128:128-f80:128-n8:16:32:64-S128"
target triple = "x86_64-pc-linux-gnu"

%"class.std::__cxx11::basic_string" = type { %"struct.std::__cxx11::basic_string<char>::_Alloc_hider", i64, %union.anon }
%"struct.std::__cxx11::basic_string<char>::_Alloc_hider" = type { ptr }
%union.anon = type { i64, [8 x i8] }
%"class.osgeo::proj::util::PropertyMap" = type { %"class.std::unique_ptr" }
%"class.std::unique_ptr" = type { %"struct.std::__uniq_ptr_data" }
%"struct.std::__uniq_ptr_data" = type { %"class.std::__uniq_ptr_impl" }
%"class.std::__uniq_ptr_impl" = type { %"class.std::tuple" }
%"class.std::tuple" = type { %"struct.std::_Tuple_impl" }
%"struct.std::_Tuple_impl" = type { %"struct.std::_Head_base.1" }
%"struct.std::_Head_base.1" = type { ptr }

@_ZN5osgeo4proj6common16IdentifiedObject8NAME_KEYB5cxx11E = external global %"class.std::__cxx11::basic_string", align 8

; Function Attrs: mustprogress uwtable
define hidden void @_ZN5osgeo4proj9operation22addDefaultNameIfNeededERKNS0_4util11PropertyMapERKNSt7__cxx1112basic_stringIcSt11char_traitsIcESaIcEEE(ptr dead_on_unwind noalias writable sret(%"class.osgeo::proj::util::PropertyMap") align 8 %0, ptr noundef nonnull align 8 dereferenceable(8) %1, ptr noundef nonnull align 8 dereferenceable(32) %2) #0 personality ptr @__gxx_personality_v0 {
  %4 = alloca ptr, align 8
  %5 = alloca ptr, align 8
  %6 = alloca ptr, align 8
  %7 = alloca %"class.osgeo::proj::util::PropertyMap", align 8
  %8 = alloca ptr, align 8
  %9 = alloca i32, align 4
  store ptr %0, ptr %4, align 8
  store ptr %1, ptr %5, align 8, !tbaa !21
  store ptr %2, ptr %6, align 8, !tbaa !19
  %10 = load ptr, ptr %5, align 8, !tbaa !21
  %11 = call noundef ptr @_ZNK5osgeo4proj4util11PropertyMap3getERKNSt7__cxx1112basic_stringIcSt11char_traitsIcESaIcEEE(ptr noundef nonnull align 8 dereferenceable(8) %10, ptr noundef nonnull align 8 dereferenceable(32) @_ZN5osgeo4proj6common16IdentifiedObject8NAME_KEYB5cxx11E)
  %12 = icmp ne ptr %11, null
  br i1 %12, label %23, label %13

13:                                               ; preds = %3
  call void @llvm.lifetime.start.p0(i64 8, ptr %7) #9
  %14 = load ptr, ptr %5, align 8, !tbaa !21
  call void @_ZN5osgeo4proj4util11PropertyMapC1ERKS2_(ptr noundef nonnull align 8 dereferenceable(8) %7, ptr noundef nonnull align 8 dereferenceable(8) %14)
  %15 = load ptr, ptr %6, align 8, !tbaa !19
  %16 = invoke noundef nonnull align 8 dereferenceable(8) ptr @_ZN5osgeo4proj4util11PropertyMap3setERKNSt7__cxx1112basic_stringIcSt11char_traitsIcESaIcEEESA_(ptr noundef nonnull align 8 dereferenceable(8) %7, ptr noundef nonnull align 8 dereferenceable(32) @_ZN5osgeo4proj6common16IdentifiedObject8NAME_KEYB5cxx11E, ptr noundef nonnull align 8 dereferenceable(32) %15)
          to label %17 unwind label %19

17:                                               ; preds = %13
  invoke void @_ZN5osgeo4proj4util11PropertyMapC1ERKS2_(ptr noundef nonnull align 8 dereferenceable(8) %0, ptr noundef nonnull align 8 dereferenceable(8) %16)
          to label %18 unwind label %19

18:                                               ; preds = %17
  call void @_ZN5osgeo4proj4util11PropertyMapD1Ev(ptr noundef nonnull align 8 dereferenceable(8) %7) #9
  call void @llvm.lifetime.end.p0(i64 8, ptr %7) #9
  br label %25

19:                                               ; preds = %17, %13
  %20 = landingpad { ptr, i32 }
          cleanup
  %21 = extractvalue { ptr, i32 } %20, 0
  store ptr %21, ptr %8, align 8
  %22 = extractvalue { ptr, i32 } %20, 1
  store i32 %22, ptr %9, align 4
  call void @_ZN5osgeo4proj4util11PropertyMapD1Ev(ptr noundef nonnull align 8 dereferenceable(8) %7) #9
  call void @llvm.lifetime.end.p0(i64 8, ptr %7) #9
  br label %26

23:                                               ; preds = %3
  %24 = load ptr, ptr %5, align 8, !tbaa !21
  call void @_ZN5osgeo4proj4util11PropertyMapC1ERKS2_(ptr noundef nonnull align 8 dereferenceable(8) %0, ptr noundef nonnull align 8 dereferenceable(8) %24)
  br label %25

25:                                               ; preds = %23, %18
  ret void

26:                                               ; preds = %19
  %27 = load ptr, ptr %8, align 8
  %28 = load i32, ptr %9, align 4
  %29 = insertvalue { ptr, i32 } poison, ptr %27, 0
  %30 = insertvalue { ptr, i32 } %29, i32 %28, 1
  resume { ptr, i32 } %30
}